target datalayout = "e-m:e-p270:32:32-p271:32:32-p272:64:64-i64:64-i128:128-f80:128-n8:16:32:64-S128"
target triple = "x86_64-pc-linux-gnu"

%struct.mbedtls_ecp_group = type { i32, %struct.mbedtls_mpi, %struct.mbedtls_mpi, %struct.mbedtls_mpi, %struct.mbedtls_ecp_point, %struct.mbedtls_mpi, i64, i64, i32, ptr, ptr, ptr, ptr, ptr, i64 }
%struct.mbedtls_ecp_point = type { %struct.mbedtls_mpi, %struct.mbedtls_mpi, %struct.mbedtls_mpi }
%struct.mbedtls_mpi = type { ptr, i16, i16 }
%struct.mbedtls_ecdh_context = type { i8, i32, i32, %union.anon }
%union.anon = type { %struct.mbedtls_ecdh_context_mbed }
%struct.mbedtls_ecdh_context_mbed = type { %struct.mbedtls_ecp_group, %struct.mbedtls_mpi, %struct.mbedtls_ecp_point, %struct.mbedtls_ecp_point, %struct.mbedtls_mpi }

; Function Attrs: nounwind uwtable
define internal void @ecdh_free_internal(ptr noundef %0) #0 {
  %2 = alloca ptr, align 8
  store ptr %0, ptr %2, align 8, !tbaa !21
  %3 = load ptr, ptr %2, align 8, !tbaa !21
  %4 = getelementptr inbounds nuw %struct.mbedtls_ecdh_context_mbed, ptr %3, i32 0, i32 0
  call void @mbedtls_ecp_group_free(ptr noundef %4)
  %5 = load ptr, ptr %2, align 8, !tbaa !21
  %6 = getelementptr inbounds nuw %struct.mbedtls_ecdh_context_mbed, ptr %5, i32 0, i32 1
  call void @mbedtls_mpi_free(ptr noundef %6)
  %7 = load ptr, ptr %2, align 8, !tbaa !21
  %8 = getelementptr inbounds nuw %struct.mbedtls_ecdh_context_mbed, ptr %7, i32 0, i32 2
  call void @mbedtls_ecp_point_free(ptr noundef %8)
  %9 = load ptr, ptr %2, align 8, !tbaa !21
  %10 = getelementptr inbounds nuw %struct.mbedtls_ecdh_context_mbed, ptr %9, i32 0, i32 3
  call void @mbedtls_ecp_point_free(ptr noundef %10)
  %11 = load ptr, ptr %2, align 8, !tbaa !21
  %12 = getelementptr inbounds nuw %struct.mbedtls_ecdh_context_mbed, ptr %11, i32 0, i32 4
  call void @mbedtls_mpi_free(ptr noundef %12)
  ret void
}

; Function Attrs: nounwind uwtable
define hidden void @mbedtls_ecdh_free(ptr noundef %0) #0 {
  %2 = alloca ptr, align 8
  store ptr %0, ptr %2, align 8, !tbaa !15
  %3 = load ptr, ptr %2, align 8, !tbaa !15
  %4 = icmp eq ptr %3, null
  br i1 %4, label %5, label %6

5:                                                ; preds = %1
  br label %21

6:                                                ; preds = %1
  %7 = load ptr, ptr %2, align 8, !tbaa !15
  %8 = getelementptr inbounds nuw %struct.mbedtls_ecdh_context, ptr %7, i32 0, i32 2
  %9 = load i32, ptr %8, align 8, !tbaa !19
  switch i32 %9, label %13 [
    i32 1, label %10
  ]

10:                                               ; preds = %6
  %11 = load ptr, ptr %2, align 8, !tbaa !15
  %12 = getelementptr inbounds nuw %struct.mbedtls_ecdh_context, ptr %11, i32 0, i32 3
  call void @ecdh_free_internal(ptr noundef %12)
  br label %14

13:                                               ; preds = %6
  br label %14

14:                                               ; preds = %13, %10
  %15 = load ptr, ptr %2, align 8, !tbaa !15
  %16 = getelementptr inbounds nuw %struct.mbedtls_ecdh_context, ptr %15, i32 0, i32 0
  store i8 0, ptr %16, align 8, !tbaa !20
  %17 = load ptr, ptr %2, align 8, !tbaa !15
  %18 = getelementptr inbounds nuw %struct.mbedtls_ecdh_context, ptr %17, i32 0, i32 2
  store i32 0, ptr %18, align 8, !tbaa !19
  %19 = load ptr, ptr %2, align 8, !tbaa !15
  %20 = getelementptr inbounds nuw %struct.mbedtls_ecdh_context, ptr %19, i32 0, i32 1
  store i32 0, ptr %20, align 4, !tbaa !17
  br label %21

21:                                               ; preds = %14, %5
  ret void
}