; Function Attrs: nounwind uwtable
define hidden void @mbedtls_ecdh_free(ptr noundef %0) local_unnamed_addr #1 {
  %2 = icmp eq ptr %0, null
  br i1 %2, label %14, label %3

3:                                                ; preds = %1
  %4 = getelementptr inbounds nuw i8, ptr %0, i64 8
  %5 = load i32, ptr %4, align 8, !tbaa !9
  %cond = icmp eq i32 %5, 1
  br i1 %cond, label %6, label %12

6:                                                ; preds = %3
  %7 = getelementptr inbounds nuw i8, ptr %0, i64 16
  tail call void @mbedtls_ecp_group_free(ptr noundef nonnull %7) #7
  %8 = getelementptr inbounds nuw i8, ptr %0, i64 208
  tail call void @mbedtls_mpi_free(ptr noundef nonnull %8) #7
  %9 = getelementptr inbounds nuw i8, ptr %0, i64 224
  tail call void @mbedtls_ecp_point_free(ptr noundef nonnull %9) #7
  %10 = getelementptr inbounds nuw i8, ptr %0, i64 272
  tail call void @mbedtls_ecp_point_free(ptr noundef nonnull %10) #7
  %11 = getelementptr inbounds nuw i8, ptr %0, i64 320
  tail call void @mbedtls_mpi_free(ptr noundef nonnull %11) #7
  br label %12

12:                                               ; preds = %3, %6
  store i8 0, ptr %0, align 8, !tbaa !8
  store i32 0, ptr %4, align 8, !tbaa !9
  %13 = getelementptr inbounds nuw i8, ptr %0, i64 4
  store i32 0, ptr %13, align 4, !tbaa !3
  br label %14

14:                                               ; preds = %1, %12
  ret void
}